target datalayout = "e-m:e-p270:32:32-p271:32:32-p272:64:64-i64:64-i128:128-f80:128-n8:16:32:64-S128"
target triple = "x86_64-pc-linux-gnu"

%struct.Model = type { %struct.Matrix, i32, i32, ptr, ptr, ptr, i32, ptr, ptr }
%struct.Matrix = type { float, float, float, float, float, float, float, float, float, float, float, float, float, float, float, float }
%struct.BoneInfo = type { [32 x i8], i32 }
%struct.ModelAnimation = type { i32, i32, ptr, ptr, [32 x i8] }

; Function Attrs: nounwind uwtable
define zeroext i1 @IsModelAnimationValid(ptr noundef byval(%struct.Model) align 8 %0, ptr noundef byval(%struct.ModelAnimation) align 8 %1) #0 {
  %3 = alloca i32, align 4
  %4 = alloca i32, align 4
  %5 = alloca i32, align 4
  call void @llvm.lifetime.start.p0(i64 4, ptr %3) #16
  store i32 1, ptr %3, align 4
  %6 = getelementptr inbounds nuw %struct.Model, ptr %0, i32 0, i32 6
  %7 = load i32, ptr %6, align 8
  %8 = getelementptr inbounds nuw %struct.ModelAnimation, ptr %1, i32 0, i32 0
  %9 = load i32, ptr %8, align 8
  %10 = icmp ne i32 %7, %9
  br i1 %10, label %11, label %12

11:                                               ; preds = %2
  store i32 0, ptr %3, align 4
  br label %42

12:                                               ; preds = %2
  call void @llvm.lifetime.start.p0(i64 4, ptr %4) #16
  store i32 0, ptr %4, align 4
  br label %13

13:                                               ; preds = %37, %12
  %14 = load i32, ptr %4, align 4
  %15 = getelementptr inbounds nuw %struct.Model, ptr %0, i32 0, i32 6
  %16 = load i32, ptr %15, align 8
  %17 = icmp slt i32 %14, %16
  br i1 %17, label %19, label %18

18:                                               ; preds = %13
  store i32 2, ptr %5, align 4
  br label %40

19:                                               ; preds = %13
  %20 = getelementptr inbounds nuw %struct.Model, ptr %0, i32 0, i32 7
  %21 = load ptr, ptr %20, align 8
  %22 = load i32, ptr %4, align 4
  %23 = sext i32 %22 to i64
  %24 = getelementptr inbounds %struct.BoneInfo, ptr %21, i64 %23
  %25 = getelementptr inbounds nuw %struct.BoneInfo, ptr %24, i32 0, i32 1
  %26 = load i32, ptr %25, align 4
  %27 = getelementptr inbounds nuw %struct.ModelAnimation, ptr %1, i32 0, i32 2
  %28 = load ptr, ptr %27, align 8
  %29 = load i32, ptr %4, align 4
  %30 = sext i32 %29 to i64
  %31 = getelementptr inbounds %struct.BoneInfo, ptr %28, i64 %30
  %32 = getelementptr inbounds nuw %struct.BoneInfo, ptr %31, i32 0, i32 1
  %33 = load i32, ptr %32, align 4
  %34 = icmp ne i32 %26, %33
  br i1 %34, label %35, label %36

35:                                               ; preds = %19
  store i32 0, ptr %3, align 4
  store i32 2, ptr %5, align 4
  br label %40

36:                                               ; preds = %19
  br label %37

37:                                               ; preds = %36
  %38 = load i32, ptr %4, align 4
  %39 = add nsw i32 %38, 1
  store i32 %39, ptr %4, align 4
  br label %13

40:                                               ; preds = %35, %18
  call void @llvm.lifetime.end.p0(i64 4, ptr %4) #16
  br label %41

41:                                               ; preds = %40
  br label %42

42:                                               ; preds = %41, %11
  %43 = load i32, ptr %3, align 4
  %44 = icmp ne i32 %43, 0
  store i32 1, ptr %5, align 4
  call void @llvm.lifetime.end.p0(i64 4, ptr %3) #16
  ret i1 %44
}