; Function Attrs: nofree norecurse nosync nounwind memory(read, inaccessiblemem: none) uwtable
define noundef zeroext i1 @IsModelAnimationValid(ptr noundef readonly byval(%struct.Model) align 8 captures(none) %0, ptr noundef readonly byval(%struct.ModelAnimation) align 8 captures(none) %1) local_unnamed_addr #15 {
  %3 = getelementptr inbounds nuw i8, ptr %0, i64 96
  %4 = load i32, ptr %3, align 8
  %5 = load i32, ptr %1, align 8
  %.not = icmp eq i32 %4, %5
  br i1 %.not, label %.preheader, label %.loopexit

.preheader:                                       ; preds = %2
  %.not78 = icmp sgt i32 %4, 0
  br i1 %.not78, label %.lr.ph, label %.loopexit

.lr.ph:                                           ; preds = %.preheader
  %6 = getelementptr inbounds nuw i8, ptr %0, i64 104
  %7 = load ptr, ptr %6, align 8
  %8 = getelementptr inbounds nuw i8, ptr %1, i64 8
  %9 = load ptr, ptr %8, align 8
  %wide.trip.count = zext nneg i32 %4 to i64
  br label %10

10:                                               ; preds = %10, %.lr.ph
  %indvars.iv = phi i64 [ 0, %.lr.ph ], [ %indvars.iv.next, %10 ]
  %11 = getelementptr inbounds nuw %struct.BoneInfo, ptr %7, i64 %indvars.iv, i32 1
  %12 = load i32, ptr %11, align 4
  %13 = getelementptr inbounds nuw %struct.BoneInfo, ptr %9, i64 %indvars.iv, i32 1
  %14 = load i32, ptr %13, align 4
  %.not6 = icmp eq i32 %12, %14
  %indvars.iv.next = add nuw nsw i64 %indvars.iv, 1
  %exitcond.not = icmp ne i64 %indvars.iv.next, %wide.trip.count
  %or.cond.not = select i1 %.not6, i1 %exitcond.not, i1 false
  br i1 %or.cond.not, label %10, label %.loopexit

.loopexit:                                        ; preds = %10, %.preheader, %2
  %.05 = phi i1 [ false, %2 ], [ true, %.preheader ], [ %.not6, %10 ]
  ret i1 %.05
}